; Function Attrs: mustprogress uwtable
define hidden noundef zeroext i1 @_ZNK12mpff_manager6is_intERK4mpff(ptr noundef nonnull readonly align 8 captures(none) dereferenceable(89) %0, ptr noundef nonnull readonly align 4 captures(none) dereferenceable(8) %1) local_unnamed_addr #3 align 2 {
  %3 = getelementptr inbounds nuw i8, ptr %1, i64 4
  %4 = load i32, ptr %3, align 4, !tbaa !35
  %5 = icmp sgt i32 %4, -1
  br i1 %5, label %22, label %6

6:                                                ; preds = %2
  %7 = getelementptr inbounds nuw i8, ptr %0, i64 4
  %8 = load i32, ptr %7, align 4, !tbaa !18
  %9 = sub nsw i32 0, %8
  %.not = icmp sgt i32 %4, %9
  br i1 %.not, label %10, label %22

10:                                               ; preds = %6
  %11 = load i32, ptr %0, align 8, !tbaa !13
  %12 = getelementptr inbounds nuw i8, ptr %0, i64 8
  %13 = load ptr, ptr %12, align 8, !tbaa !3
  %14 = load i32, ptr %1, align 4
  %15 = lshr i32 %14, 1
  %16 = mul i32 %15, %11
  %17 = zext i32 %16 to i64
  %18 = getelementptr inbounds nuw i32, ptr %13, i64 %17
  %19 = sub nsw i32 0, %4
  %20 = tail call noundef zeroext i1 @_Z23has_one_at_first_k_bitsjPKjj(i32 noundef %11, ptr noundef %18, i32 noundef %19)
  %21 = xor i1 %20, true
  br label %22

22:                                               ; preds = %6, %2, %10
  %.0 = phi i1 [ %21, %10 ], [ true, %2 ], [ false, %6 ]
  ret i1 %.0
}